; Function Attrs: mustprogress nounwind uwtable
define dso_local void @_ZN10cmDebugger30cmDebuggerPipeConnection_POSIXD2Ev(ptr noundef nonnull align 8 dereferenceable(216) %0, ptr nocapture noundef readonly %1) unnamed_addr #2 align 2 personality ptr @__gxx_personality_v0 {
  %3 = load ptr, ptr %1, align 8
  store ptr %3, ptr %0, align 8
  %4 = getelementptr inbounds i8, ptr %1, i64 64
  %5 = load ptr, ptr %4, align 8
  %6 = getelementptr i8, ptr %3, i64 -48
  %7 = load i64, ptr %6, align 8
  %8 = getelementptr inbounds i8, ptr %0, i64 %7
  store ptr %5, ptr %8, align 8
  %9 = getelementptr inbounds i8, ptr %1, i64 72
  %10 = load ptr, ptr %9, align 8
  %11 = getelementptr inbounds i8, ptr %0, i64 8
  store ptr %10, ptr %11, align 8
  %12 = getelementptr inbounds i8, ptr %0, i64 16
  store ptr getelementptr inbounds ({ [16 x ptr], [11 x ptr], [8 x ptr] }, ptr @_ZTVN10cmDebugger30cmDebuggerPipeConnection_POSIXE, i64 0, i32 2, i64 2), ptr %12, align 8
  %13 = load ptr, ptr %0, align 8
  %14 = getelementptr inbounds i8, ptr %13, i64 16
  %15 = load ptr, ptr %14, align 8
  %16 = invoke noundef zeroext i1 %15(ptr noundef nonnull align 8 dereferenceable(216) %0)
          to label %17 unwind label %41

17:                                               ; preds = %2
  br i1 %16, label %18, label %22

18:                                               ; preds = %17
  %19 = load ptr, ptr %0, align 8
  %20 = getelementptr inbounds i8, ptr %19, i64 24
  %21 = load ptr, ptr %20, align 8
  invoke void %21(ptr noundef nonnull align 8 dereferenceable(216) %0)
          to label %22 unwind label %41

22:                                               ; preds = %18, %17
  %23 = getelementptr inbounds i8, ptr %0, i64 64
  tail call void @_ZNSt7__cxx1112basic_stringIcSt11char_traitsIcESaIcEED1Ev(ptr noundef nonnull align 8 dereferenceable(32) %23) #25
  %24 = getelementptr inbounds i8, ptr %0, i64 40
  tail call void @_ZNSt7promiseIvED2Ev(ptr noundef nonnull align 8 dereferenceable(24) %24) #25
  %25 = getelementptr inbounds i8, ptr %0, i64 32
  %26 = load ptr, ptr %25, align 8
  %.not.i.i.i.i = icmp eq ptr %26, null
  br i1 %.not.i.i.i.i, label %_ZNSt23enable_shared_from_thisIN10cmDebugger30cmDebuggerPipeConnection_POSIXEED2Ev.exit, label %27

27:                                               ; preds = %22
  %28 = getelementptr inbounds i8, ptr %26, i64 12
  %29 = load i8, ptr @__libc_single_threaded, align 1
  %.not.i.i.i.i.i = icmp eq i8 %29, 0
  br i1 %.not.i.i.i.i.i, label %33, label %30

30:                                               ; preds = %27
  %31 = load i32, ptr %28, align 4
  %32 = add nsw i32 %31, -1
  store i32 %32, ptr %28, align 4
  br label %35

33:                                               ; preds = %27
  %34 = atomicrmw volatile add ptr %28, i32 -1 acq_rel, align 4
  br label %35

35:                                               ; preds = %33, %30
  %.0.i.i.i.i.i = phi i32 [ %31, %30 ], [ %34, %33 ]
  %36 = icmp eq i32 %.0.i.i.i.i.i, 1
  br i1 %36, label %37, label %_ZNSt23enable_shared_from_thisIN10cmDebugger30cmDebuggerPipeConnection_POSIXEED2Ev.exit

37:                                               ; preds = %35
  %38 = load ptr, ptr %26, align 8
  %39 = getelementptr inbounds i8, ptr %38, i64 24
  %40 = load ptr, ptr %39, align 8
  tail call void %40(ptr noundef nonnull align 8 dereferenceable(16) %26) #25
  br label %_ZNSt23enable_shared_from_thisIN10cmDebugger30cmDebuggerPipeConnection_POSIXEED2Ev.exit

_ZNSt23enable_shared_from_thisIN10cmDebugger30cmDebuggerPipeConnection_POSIXEED2Ev.exit: ; preds = %22, %35, %37
  ret void

41:                                               ; preds = %18, %2
  %42 = landingpad { ptr, i32 }
          catch ptr null
  %43 = extractvalue { ptr, i32 } %42, 0
  tail call void @__clang_call_terminate(ptr %43) #26
  unreachable
}